; Function Attrs: mustprogress nofree nounwind willreturn memory(read, inaccessiblemem: none) uwtable
define dso_local noundef zeroext i1 @_ZN13cmSystemTools21VersionCompareGreaterERKNSt7__cxx1112basic_stringIcSt11char_traitsIcESaIcEEES7_(ptr noundef nonnull readonly align 8 captures(none) dereferenceable(32) %0, ptr noundef nonnull readonly align 8 captures(none) dereferenceable(32) %1) local_unnamed_addr #20 align 2 {
  %3 = load ptr, ptr %0, align 8, !tbaa !13
  %4 = load ptr, ptr %1, align 8, !tbaa !13
  br label %5

5:                                                ; preds = %36, %2
  %.048.i.i = phi ptr [ %4, %2 ], [ %spec.select.i.i, %36 ]
  %.045.i.i = phi ptr [ %3, %2 ], [ %.4.i.i, %36 ]
  %6 = load i8, ptr %.045.i.i, align 1, !tbaa !26
  %7 = add i8 %6, -48
  %or.cond.i.i = icmp ult i8 %7, 10
  br i1 %or.cond.i.i, label %.critedge.i.i.preheader, label %8

8:                                                ; preds = %5
  %9 = load i8, ptr %.048.i.i, align 1, !tbaa !26
  %10 = add i8 %9, -48
  %or.cond58.i.i = icmp ult i8 %10, 10
  br i1 %or.cond58.i.i, label %.critedge.i.i.preheader, label %_ZN13cmSystemTools14VersionCompareENS_9CompareOpERKNSt7__cxx1112basic_stringIcSt11char_traitsIcESaIcEEES8_.exit

.critedge.i.i.preheader:                          ; preds = %8, %5
  br label %.critedge.i.i

.critedge.i.i:                                    ; preds = %.critedge.i.i.preheader, %.critedge.i.i
  %.146.i.i = phi ptr [ %13, %.critedge.i.i ], [ %.045.i.i, %.critedge.i.i.preheader ]
  %11 = load i8, ptr %.146.i.i, align 1, !tbaa !26
  %12 = icmp eq i8 %11, 48
  %13 = getelementptr inbounds nuw i8, ptr %.146.i.i, i64 1
  br i1 %12, label %.critedge.i.i, label %.preheader65.i.i, !llvm.loop !718

.preheader65.i.i:                                 ; preds = %.critedge.i.i, %.preheader65.i.i
  %.149.i.i = phi ptr [ %16, %.preheader65.i.i ], [ %.048.i.i, %.critedge.i.i ]
  %14 = load i8, ptr %.149.i.i, align 1, !tbaa !26
  %15 = icmp eq i8 %14, 48
  %16 = getelementptr inbounds nuw i8, ptr %.149.i.i, i64 1
  br i1 %15, label %.preheader65.i.i, label %.preheader.i.i, !llvm.loop !719

.preheader.i.i:                                   ; preds = %.preheader65.i.i, %.preheader.i.i
  %.247.i.i = phi ptr [ %19, %.preheader.i.i ], [ %.146.i.i, %.preheader65.i.i ]
  %17 = load i8, ptr %.247.i.i, align 1, !tbaa !26
  %18 = add i8 %17, -48
  %or.cond59.i.i = icmp ult i8 %18, 10
  %19 = getelementptr inbounds nuw i8, ptr %.247.i.i, i64 1
  br i1 %or.cond59.i.i, label %.preheader.i.i, label %.critedge4.i.i, !llvm.loop !720

.critedge4.i.i:                                   ; preds = %.preheader.i.i, %.critedge4.i.i
  %.250.i.i = phi ptr [ %22, %.critedge4.i.i ], [ %.149.i.i, %.preheader.i.i ]
  %20 = load i8, ptr %.250.i.i, align 1, !tbaa !26
  %21 = add i8 %20, -48
  %or.cond60.i.i = icmp ult i8 %21, 10
  %22 = getelementptr inbounds nuw i8, ptr %.250.i.i, i64 1
  br i1 %or.cond60.i.i, label %.critedge4.i.i, label %.critedge6.i.i, !llvm.loop !721

.critedge6.i.i:                                   ; preds = %.critedge4.i.i
  %23 = ptrtoint ptr %.247.i.i to i64
  %24 = ptrtoint ptr %.146.i.i to i64
  %25 = sub i64 %23, %24
  %26 = ptrtoint ptr %.250.i.i to i64
  %27 = ptrtoint ptr %.149.i.i to i64
  %.neg.i.i = sub i64 %27, %26
  %28 = add i64 %.neg.i.i, %25
  %29 = icmp eq i64 %28, 0
  br i1 %29, label %30, label %33

30:                                               ; preds = %.critedge6.i.i
  %31 = tail call i32 @strncmp(ptr noundef nonnull %.146.i.i, ptr noundef nonnull %.149.i.i, i64 noundef %25) #39
  %32 = sext i32 %31 to i64
  br label %33

33:                                               ; preds = %30, %.critedge6.i.i
  %.043.i.i = phi i64 [ %32, %30 ], [ %28, %.critedge6.i.i ]
  %34 = icmp slt i64 %.043.i.i, 0
  br i1 %34, label %_ZN13cmSystemTools14VersionCompareENS_9CompareOpERKNSt7__cxx1112basic_stringIcSt11char_traitsIcESaIcEEES8_.exit, label %35

35:                                               ; preds = %33
  %.not.i.i = icmp eq i64 %.043.i.i, 0
  br i1 %.not.i.i, label %36, label %_ZN13cmSystemTools14VersionCompareENS_9CompareOpERKNSt7__cxx1112basic_stringIcSt11char_traitsIcESaIcEEES8_.exit

36:                                               ; preds = %35
  %37 = icmp eq i8 %20, 46
  %spec.select.idx.i.i = zext i1 %37 to i64
  %spec.select.i.i = getelementptr inbounds nuw i8, ptr %.250.i.i, i64 %spec.select.idx.i.i
  %38 = icmp eq i8 %17, 46
  %.4.idx.i.i = zext i1 %38 to i64
  %.4.i.i = getelementptr inbounds nuw i8, ptr %.247.i.i, i64 %.4.idx.i.i
  br label %5, !llvm.loop !722

_ZN13cmSystemTools14VersionCompareENS_9CompareOpERKNSt7__cxx1112basic_stringIcSt11char_traitsIcESaIcEEES8_.exit: ; preds = %8, %33, %35
  %.2.i.i = phi i1 [ false, %33 ], [ true, %35 ], [ false, %8 ]
  ret i1 %.2.i.i
}